; Function Attrs: mustprogress nofree norecurse nosync nounwind willreturn memory(argmem: readwrite) uwtable
define void @_ZN6LibRaw19process_Sony_0x9403EPht(ptr noundef nonnull align 8 captures(none) dereferenceable(767680) %0, ptr noundef readonly captures(none) %1, i16 noundef zeroext %2) local_unnamed_addr #5 align 2 {
  %4 = icmp ult i16 %2, 6
  %5 = getelementptr inbounds nuw i8, ptr %0, i64 381520
  %6 = load i64, ptr %5, align 8
  %7 = icmp eq i64 %6, 381
  %or.cond9 = select i1 %4, i1 true, i1 %7
  br i1 %or.cond9, label %19, label %8

8:                                                ; preds = %3
  %9 = getelementptr inbounds nuw i8, ptr %1, i64 4
  %10 = load i8, ptr %9, align 1, !tbaa !101
  switch i8 %10, label %11 [
    i8 61, label %19
    i8 0, label %19
  ]

11:                                               ; preds = %8
  %12 = getelementptr inbounds nuw i8, ptr %1, i64 5
  %13 = load i8, ptr %12, align 1, !tbaa !101
  %14 = zext i8 %13 to i64
  %15 = getelementptr inbounds nuw [257 x i8], ptr @_ZL16SonySubstitution, i64 0, i64 %14
  %16 = load i8, ptr %15, align 1, !tbaa !101
  %17 = uitofp i8 %16 to float
  %18 = getelementptr inbounds nuw i8, ptr %0, i64 4708
  store float %17, ptr %18, align 4, !tbaa !131
  br label %19

19:                                               ; preds = %11, %8, %8, %3
  ret void
}